; Function Attrs: nounwind uwtable
define internal noundef zeroext i1 @pg_generic_charinc(ptr noundef %0, i32 noundef %1) #0 {
  %3 = sext i32 %1 to i64
  %4 = getelementptr inbounds i8, ptr %0, i64 %3
  %5 = getelementptr inbounds i8, ptr %4, i64 -1
  %6 = load ptr, ptr @DatabaseEncoding, align 8
  %7 = getelementptr inbounds nuw i8, ptr %6, i64 8
  %8 = load i32, ptr %7, align 8
  %9 = sext i32 %8 to i64
  %10 = getelementptr inbounds [0 x %struct.pg_wchar_tbl], ptr @pg_wchar_table, i64 0, i64 %9, i32 4
  %11 = load ptr, ptr %10, align 8
  br label %12

12:                                               ; preds = %14, %2
  %13 = load i8, ptr %5, align 1
  %.not.not.not.not.not.not = icmp ne i8 %13, -1
  br i1 %.not.not.not.not.not.not, label %14, label %18

14:                                               ; preds = %12
  %15 = add nuw i8 %13, 1
  store i8 %15, ptr %5, align 1
  %16 = tail call i32 %11(ptr noundef nonnull %0, i32 noundef %1) #13
  %17 = icmp eq i32 %16, %1
  br i1 %17, label %18, label %12, !llvm.loop !15

18:                                               ; preds = %12, %14
  ret i1 %.not.not.not.not.not.not
}